target datalayout = "e-m:e-p270:32:32-p271:32:32-p272:64:64-i64:64-i128:128-f80:128-n8:16:32:64-S128"
target triple = "x86_64-unknown-linux-gnu"

%"class.euf::bv_plugin" = type { %"class.euf::plugin", %class.bv_util, %class.svector, %class.ptr_vector, %class.ptr_vector, i8, %class.ptr_vector }
%"class.euf::plugin" = type { ptr, ptr }
%class.bv_util = type { %class.bv_recognizers, ptr, ptr }
%class.bv_recognizers = type { i32 }
%class.svector = type { %class.vector }
%class.vector = type { ptr }
%class.ptr_vector = type { %class.vector.0 }
%class.vector.0 = type { ptr }
%"class.euf::justification" = type { i32, %union.anon, %union.anon.19 }
%union.anon = type { ptr }
%union.anon.19 = type { ptr }
%"class.euf::enode" = type { ptr, i8, i8, i8, i8, i8, i8, i8, i8, i8, i32, i32, i32, i32, i32, i32, %class.ptr_vector, ptr, ptr, ptr, ptr, %class.id_var_list, %"class.euf::justification", %"class.euf::justification", i32, i8, %class.approx_set, %class.approx_set, [0 x ptr] }
%class.id_var_list = type { i32, ptr }
%class.approx_set = type { %class.approx_set_tpl }
%class.approx_set_tpl = type { i64 }
%"class.euf::enode_parents" = type { ptr }
%class.anon = type { ptr, ptr, ptr, ptr }

; Function Attrs: mustprogress nounwind uwtable
define linkonce_odr hidden noundef i32 @_ZNK14bv_recognizers7get_fidEv(ptr noundef nonnull align 4 dereferenceable(4) %this) #4 comdat align 2 {
entry:
  %this.addr = alloca ptr, align 8
  store ptr %this, ptr %this.addr, align 8
  %this1 = load ptr, ptr %this.addr, align 8
  %m_afid = getelementptr inbounds %class.bv_recognizers, ptr %this1, i32 0, i32 0
  %0 = load i32, ptr %m_afid, align 4
  ret i32 %0
}

; Function Attrs: mustprogress uwtable
define linkonce_odr hidden noundef ptr @_ZN7bv_util9mk_concatEjPKP4expr(ptr noundef nonnull align 8 dereferenceable(24) %this, i32 noundef %num, ptr noundef %args) #5 comdat align 2 {
entry:
  %this.addr = alloca ptr, align 8
  %num.addr = alloca i32, align 4
  %args.addr = alloca ptr, align 8
  store ptr %this, ptr %this.addr, align 8
  store i32 %num, ptr %num.addr, align 4
  store ptr %args, ptr %args.addr, align 8
  %this1 = load ptr, ptr %this.addr, align 8
  %m_manager = getelementptr inbounds %class.bv_util, ptr %this1, i32 0, i32 1
  %0 = load ptr, ptr %m_manager, align 8
  %call = call noundef i32 @_ZNK14bv_recognizers7get_fidEv(ptr noundef nonnull align 4 dereferenceable(4) %this1)
  %1 = load i32, ptr %num.addr, align 4
  %2 = load ptr, ptr %args.addr, align 8
  %call2 = call noundef ptr @_ZN11ast_manager6mk_appEiijPKP4expr(ptr noundef nonnull align 8 dereferenceable(976) %0, i32 noundef %call, i32 noundef 37, i32 noundef %1, ptr noundef %2)
  ret ptr %call2
}

; Function Attrs: mustprogress nounwind uwtable
define linkonce_odr hidden noundef i32 @_ZNK6vectorIPN3euf5enodeELb0EjE4sizeEv(ptr noundef nonnull align 8 dereferenceable(8) %this) #4 comdat align 2 {
entry:
  %retval = alloca i32, align 4
  %this.addr = alloca ptr, align 8
  store ptr %this, ptr %this.addr, align 8
  %this1 = load ptr, ptr %this.addr, align 8
  %m_data = getelementptr inbounds %class.vector.0, ptr %this1, i32 0, i32 0
  %0 = load ptr, ptr %m_data, align 8
  %cmp = icmp eq ptr %0, null
  br i1 %cmp, label %if.then, label %if.end

if.then:                                          ; preds = %entry
  store i32 0, ptr %retval, align 4
  br label %return

if.end:                                           ; preds = %entry
  %m_data2 = getelementptr inbounds %class.vector.0, ptr %this1, i32 0, i32 0
  %1 = load ptr, ptr %m_data2, align 8
  %arrayidx = getelementptr inbounds i32, ptr %1, i64 -1
  %2 = load i32, ptr %arrayidx, align 4
  store i32 %2, ptr %retval, align 4
  br label %return

return:                                           ; preds = %if.end, %if.then
  %3 = load i32, ptr %retval, align 4
  ret i32 %3
}

; Function Attrs: mustprogress uwtable
define linkonce_odr hidden noundef ptr @_ZN7bv_util9mk_concatEP4exprS1_(ptr noundef nonnull align 8 dereferenceable(24) %this, ptr noundef %arg1, ptr noundef %arg2) #5 comdat align 2 {
entry:
  %this.addr = alloca ptr, align 8
  %arg1.addr = alloca ptr, align 8
  %arg2.addr = alloca ptr, align 8
  %args = alloca [2 x ptr], align 16
  store ptr %this, ptr %this.addr, align 8
  store ptr %arg1, ptr %arg1.addr, align 8
  store ptr %arg2, ptr %arg2.addr, align 8
  %this1 = load ptr, ptr %this.addr, align 8
  %arrayinit.begin = getelementptr inbounds [2 x ptr], ptr %args, i64 0, i64 0
  %0 = load ptr, ptr %arg1.addr, align 8
  store ptr %0, ptr %arrayinit.begin, align 8
  %arrayinit.element = getelementptr inbounds ptr, ptr %arrayinit.begin, i64 1
  %1 = load ptr, ptr %arg2.addr, align 8
  store ptr %1, ptr %arrayinit.element, align 8
  %arraydecay = getelementptr inbounds [2 x ptr], ptr %args, i64 0, i64 0
  %call = call noundef ptr @_ZN7bv_util9mk_concatEjPKP4expr(ptr noundef nonnull align 8 dereferenceable(24) %this1, i32 noundef 2, ptr noundef %arraydecay)
  ret ptr %call
}

; Function Attrs: mustprogress nounwind uwtable
define linkonce_odr hidden noundef ptr @_ZNK3euf5enode8get_exprEv(ptr noundef nonnull align 8 dereferenceable(176) %this) #4 comdat align 2 {
entry:
  %this.addr = alloca ptr, align 8
  store ptr %this, ptr %this.addr, align 8
  %this1 = load ptr, ptr %this.addr, align 8
  %m_expr = getelementptr inbounds %"class.euf::enode", ptr %this1, i32 0, i32 0
  %0 = load ptr, ptr %m_expr, align 8
  ret ptr %0
}

; Function Attrs: mustprogress uwtable
define linkonce_odr hidden noundef ptr @_ZNK6vectorIPN3euf5enodeELb0EjE3endEv(ptr noundef nonnull align 8 dereferenceable(8) %this) #5 comdat align 2 {
entry:
  %this.addr = alloca ptr, align 8
  store ptr %this, ptr %this.addr, align 8
  %this1 = load ptr, ptr %this.addr, align 8
  %m_data = getelementptr inbounds %class.vector.0, ptr %this1, i32 0, i32 0
  %0 = load ptr, ptr %m_data, align 8
  %call = call noundef i32 @_ZNK6vectorIPN3euf5enodeELb0EjE4sizeEv(ptr noundef nonnull align 8 dereferenceable(8) %this1)
  %idx.ext = zext i32 %call to i64
  %add.ptr = getelementptr inbounds ptr, ptr %0, i64 %idx.ext
  ret ptr %add.ptr
}

; Function Attrs: mustprogress nounwind uwtable
define linkonce_odr hidden noundef ptr @_ZNK6vectorIPN3euf5enodeELb0EjE5beginEv(ptr noundef nonnull align 8 dereferenceable(8) %this) #4 comdat align 2 {
entry:
  %this.addr = alloca ptr, align 8
  store ptr %this, ptr %this.addr, align 8
  %this1 = load ptr, ptr %this.addr, align 8
  %m_data = getelementptr inbounds %class.vector.0, ptr %this1, i32 0, i32 0
  %0 = load ptr, ptr %m_data, align 8
  ret ptr %0
}

; Function Attrs: mustprogress uwtable
define hidden noundef ptr @_ZN3euf9bv_plugin9mk_concatEPNS_5enodeES2_(ptr noundef nonnull align 8 dereferenceable(80) %this, ptr noundef %lo, ptr noundef %hi) #5 align 2 {
entry:
  %this.addr = alloca ptr, align 8
  %lo.addr = alloca ptr, align 8
  %hi.addr = alloca ptr, align 8
  %args = alloca [2 x ptr], align 16
  store ptr %this, ptr %this.addr, align 8
  store ptr %lo, ptr %lo.addr, align 8
  store ptr %hi, ptr %hi.addr, align 8
  %this1 = load ptr, ptr %this.addr, align 8
  %arrayinit.begin = getelementptr inbounds [2 x ptr], ptr %args, i64 0, i64 0
  %0 = load ptr, ptr %lo.addr, align 8
  store ptr %0, ptr %arrayinit.begin, align 8
  %arrayinit.element = getelementptr inbounds ptr, ptr %arrayinit.begin, i64 1
  %1 = load ptr, ptr %hi.addr, align 8
  store ptr %1, ptr %arrayinit.element, align 8
  %bv = getelementptr inbounds %"class.euf::bv_plugin", ptr %this1, i32 0, i32 1
  %2 = load ptr, ptr %lo.addr, align 8
  %call = call noundef ptr @_ZNK3euf5enode8get_exprEv(ptr noundef nonnull align 8 dereferenceable(176) %2)
  %3 = load ptr, ptr %hi.addr, align 8
  %call2 = call noundef ptr @_ZNK3euf5enode8get_exprEv(ptr noundef nonnull align 8 dereferenceable(176) %3)
  %call3 = call noundef ptr @_ZN7bv_util9mk_concatEP4exprS1_(ptr noundef nonnull align 8 dereferenceable(24) %bv, ptr noundef %call, ptr noundef %call2)
  %arraydecay = getelementptr inbounds [2 x ptr], ptr %args, i64 0, i64 0
  %call4 = call noundef ptr @_ZN3euf6plugin2mkEP4exprjPKPNS_5enodeE(ptr noundef nonnull align 8 dereferenceable(16) %this1, ptr noundef %call3, i32 noundef 2, ptr noundef %arraydecay)
  ret ptr %call4
}

; Function Attrs: mustprogress nounwind uwtable
define linkonce_odr hidden noundef ptr @_ZNK3euf5enode8get_rootEv(ptr noundef nonnull align 8 dereferenceable(176) %this) #4 comdat align 2 {
entry:
  %this.addr = alloca ptr, align 8
  store ptr %this, ptr %this.addr, align 8
  %this1 = load ptr, ptr %this.addr, align 8
  %m_root = getelementptr inbounds %"class.euf::enode", ptr %this1, i32 0, i32 18
  %0 = load ptr, ptr %m_root, align 8
  ret ptr %0
}

; Function Attrs: mustprogress nounwind uwtable
define linkonce_odr hidden noundef ptr @_ZNK3euf5enode7get_argEj(ptr noundef nonnull align 8 dereferenceable(176) %this, i32 noundef %i) #4 comdat align 2 {
entry:
  %this.addr = alloca ptr, align 8
  %i.addr = alloca i32, align 4
  store ptr %this, ptr %this.addr, align 8
  store i32 %i, ptr %i.addr, align 4
  %this1 = load ptr, ptr %this.addr, align 8
  %m_args = getelementptr inbounds %"class.euf::enode", ptr %this1, i32 0, i32 28
  %0 = load i32, ptr %i.addr, align 4
  %idxprom = zext i32 %0 to i64
  %arrayidx = getelementptr inbounds [0 x ptr], ptr %m_args, i64 0, i64 %idxprom
  %1 = load ptr, ptr %arrayidx, align 8
  ret ptr %1
}

; Function Attrs: mustprogress uwtable
define linkonce_odr hidden noundef zeroext i1 @_ZN3euf9bv_plugin10is_extractEPNS_5enodeERjS3_(ptr noundef nonnull align 8 dereferenceable(80) %this, ptr noundef %n, ptr noundef nonnull align 4 dereferenceable(4) %lo, ptr noundef nonnull align 4 dereferenceable(4) %hi) #5 comdat align 2 {
entry:
  %this.addr = alloca ptr, align 8
  %n.addr = alloca ptr, align 8
  %lo.addr = alloca ptr, align 8
  %hi.addr = alloca ptr, align 8
  %body = alloca ptr, align 8
  store ptr %this, ptr %this.addr, align 8
  store ptr %n, ptr %n.addr, align 8
  store ptr %lo, ptr %lo.addr, align 8
  store ptr %hi, ptr %hi.addr, align 8
  %this1 = load ptr, ptr %this.addr, align 8
  %bv = getelementptr inbounds %"class.euf::bv_plugin", ptr %this1, i32 0, i32 1
  %0 = load ptr, ptr %n.addr, align 8
  %call = call noundef ptr @_ZNK3euf5enode8get_exprEv(ptr noundef nonnull align 8 dereferenceable(176) %0)
  %1 = load ptr, ptr %lo.addr, align 8
  %2 = load ptr, ptr %hi.addr, align 8
  %call2 = call noundef zeroext i1 @_ZNK14bv_recognizers10is_extractEPK4exprRjS3_RPS0_(ptr noundef nonnull align 4 dereferenceable(4) %bv, ptr noundef %call, ptr noundef nonnull align 4 dereferenceable(4) %1, ptr noundef nonnull align 4 dereferenceable(4) %2, ptr noundef nonnull align 8 dereferenceable(8) %body)
  ret i1 %call2
}

; Function Attrs: mustprogress uwtable
define linkonce_odr hidden noundef ptr @_ZNK3euf13enode_parents3endEv(ptr noundef nonnull align 8 dereferenceable(8) %this) #5 comdat align 2 {
entry:
  %this.addr = alloca ptr, align 8
  store ptr %this, ptr %this.addr, align 8
  %this1 = load ptr, ptr %this.addr, align 8
  %n = getelementptr inbounds %"class.euf::enode_parents", ptr %this1, i32 0, i32 0
  %0 = load ptr, ptr %n, align 8
  %m_parents = getelementptr inbounds %"class.euf::enode", ptr %0, i32 0, i32 16
  %call = call noundef ptr @_ZNK6vectorIPN3euf5enodeELb0EjE3endEv(ptr noundef nonnull align 8 dereferenceable(8) %m_parents)
  ret ptr %call
}

; Function Attrs: mustprogress uwtable
define linkonce_odr hidden noundef ptr @_ZNK3euf13enode_parents5beginEv(ptr noundef nonnull align 8 dereferenceable(8) %this) #5 comdat align 2 {
entry:
  %this.addr = alloca ptr, align 8
  store ptr %this, ptr %this.addr, align 8
  %this1 = load ptr, ptr %this.addr, align 8
  %n = getelementptr inbounds %"class.euf::enode_parents", ptr %this1, i32 0, i32 0
  %0 = load ptr, ptr %n, align 8
  %m_parents = getelementptr inbounds %"class.euf::enode", ptr %0, i32 0, i32 16
  %call = call noundef ptr @_ZNK6vectorIPN3euf5enodeELb0EjE5beginEv(ptr noundef nonnull align 8 dereferenceable(8) %m_parents)
  ret ptr %call
}

; Function Attrs: mustprogress nounwind uwtable
define linkonce_odr hidden void @_ZN3euf13enode_parentsC2EPKNS_5enodeE(ptr noundef nonnull align 8 dereferenceable(8) %this, ptr noundef %_n) unnamed_addr #4 comdat align 2 {
entry:
  %this.addr = alloca ptr, align 8
  %_n.addr = alloca ptr, align 8
  store ptr %this, ptr %this.addr, align 8
  store ptr %_n, ptr %_n.addr, align 8
  %this1 = load ptr, ptr %this.addr, align 8
  %n = getelementptr inbounds %"class.euf::enode_parents", ptr %this1, i32 0, i32 0
  %0 = load ptr, ptr %_n.addr, align 8
  store ptr %0, ptr %n, align 8
  ret void
}

; Function Attrs: mustprogress uwtable
define internal void @"_ZZN3euf9bv_plugin17propagate_extractEPNS_5enodeEENK3$_2clEjjj"(ptr noundef nonnull align 8 dereferenceable(32) %this, i32 noundef %lo, i32 noundef %mid, i32 noundef %hi) #5 align 2 {
entry:
  %this.addr = alloca ptr, align 8
  %lo.addr = alloca i32, align 4
  %mid.addr = alloca i32, align 4
  %hi.addr = alloca i32, align 4
  %lo_ = alloca i32, align 4
  %hi_ = alloca i32, align 4
  %__range2 = alloca ptr, align 8
  %ref.tmp = alloca %"class.euf::enode_parents", align 8
  %__begin2 = alloca ptr, align 8
  %__end2 = alloca ptr, align 8
  %p1 = alloca ptr, align 8
  store ptr %this, ptr %this.addr, align 8
  store i32 %lo, ptr %lo.addr, align 4
  store i32 %mid, ptr %mid.addr, align 4
  store i32 %hi, ptr %hi.addr, align 4
  %this1 = load ptr, ptr %this.addr, align 8
  %0 = getelementptr inbounds %class.anon, ptr %this1, i32 0, i32 1
  %1 = load ptr, ptr %0, align 8
  %2 = getelementptr inbounds %class.anon, ptr %this1, i32 0, i32 0
  %3 = load ptr, ptr %2, align 8
  %4 = load ptr, ptr %3, align 8
  call void @_ZN3euf13enode_parentsC2EPKNS_5enodeE(ptr noundef nonnull align 8 dereferenceable(8) %ref.tmp, ptr noundef %4)
  store ptr %ref.tmp, ptr %__range2, align 8
  %5 = load ptr, ptr %__range2, align 8
  %call = call noundef ptr @_ZNK3euf13enode_parents5beginEv(ptr noundef nonnull align 8 dereferenceable(8) %5)
  store ptr %call, ptr %__begin2, align 8
  %6 = load ptr, ptr %__range2, align 8
  %call2 = call noundef ptr @_ZNK3euf13enode_parents3endEv(ptr noundef nonnull align 8 dereferenceable(8) %6)
  store ptr %call2, ptr %__end2, align 8
  br label %for.cond

for.cond:                                         ; preds = %for.inc, %entry
  %7 = load ptr, ptr %__begin2, align 8
  %8 = load ptr, ptr %__end2, align 8
  %cmp = icmp ne ptr %7, %8
  br i1 %cmp, label %for.body, label %for.end

for.body:                                         ; preds = %for.cond
  %9 = load ptr, ptr %__begin2, align 8
  %10 = load ptr, ptr %9, align 8
  store ptr %10, ptr %p1, align 8
  %11 = load ptr, ptr %p1, align 8
  %call3 = call noundef zeroext i1 @_ZN3euf9bv_plugin10is_extractEPNS_5enodeERjS3_(ptr noundef nonnull align 8 dereferenceable(80) %1, ptr noundef %11, ptr noundef nonnull align 4 dereferenceable(4) %lo_, ptr noundef nonnull align 4 dereferenceable(4) %hi_)
  br i1 %call3, label %land.lhs.true, label %if.end

land.lhs.true:                                    ; preds = %for.body
  %12 = load i32, ptr %lo_, align 4
  %13 = load i32, ptr %lo.addr, align 4
  %cmp4 = icmp eq i32 %12, %13
  br i1 %cmp4, label %land.lhs.true5, label %if.end

land.lhs.true5:                                   ; preds = %land.lhs.true
  %14 = load i32, ptr %hi_, align 4
  %15 = load i32, ptr %hi.addr, align 4
  %cmp6 = icmp eq i32 %14, %15
  br i1 %cmp6, label %land.lhs.true7, label %if.end

land.lhs.true7:                                   ; preds = %land.lhs.true5
  %16 = load ptr, ptr %p1, align 8
  %call8 = call noundef ptr @_ZNK3euf5enode7get_argEj(ptr noundef nonnull align 8 dereferenceable(176) %16, i32 noundef 0)
  %call9 = call noundef ptr @_ZNK3euf5enode8get_rootEv(ptr noundef nonnull align 8 dereferenceable(176) %call8)
  %17 = getelementptr inbounds %class.anon, ptr %this1, i32 0, i32 2
  %18 = load ptr, ptr %17, align 8
  %19 = load ptr, ptr %18, align 8
  %cmp10 = icmp eq ptr %call9, %19
  br i1 %cmp10, label %if.then, label %if.end

if.then:                                          ; preds = %land.lhs.true7
  br label %return

if.end:                                           ; preds = %land.lhs.true7, %land.lhs.true5, %land.lhs.true, %for.body
  br label %for.inc

for.inc:                                          ; preds = %if.end
  %20 = load ptr, ptr %__begin2, align 8
  %incdec.ptr = getelementptr inbounds ptr, ptr %20, i32 1
  store ptr %incdec.ptr, ptr %__begin2, align 8
  br label %for.cond

for.end:                                          ; preds = %for.cond
  %21 = getelementptr inbounds %class.anon, ptr %this1, i32 0, i32 3
  %22 = load ptr, ptr %21, align 8
  %23 = load ptr, ptr %22, align 8
  %24 = load i32, ptr %lo.addr, align 4
  %25 = load i32, ptr %mid.addr, align 4
  %call11 = call noundef ptr @_ZN3euf9bv_plugin10mk_extractEPNS_5enodeEjj(ptr noundef nonnull align 8 dereferenceable(80) %1, ptr noundef %23, i32 noundef %24, i32 noundef %25)
  %26 = getelementptr inbounds %class.anon, ptr %this1, i32 0, i32 3
  %27 = load ptr, ptr %26, align 8
  %28 = load ptr, ptr %27, align 8
  %29 = load i32, ptr %mid.addr, align 4
  %add = add i32 %29, 1
  %30 = load i32, ptr %hi.addr, align 4
  %call12 = call noundef ptr @_ZN3euf9bv_plugin10mk_extractEPNS_5enodeEjj(ptr noundef nonnull align 8 dereferenceable(80) %1, ptr noundef %28, i32 noundef %add, i32 noundef %30)
  %call13 = call noundef ptr @_ZN3euf9bv_plugin9mk_concatEPNS_5enodeES2_(ptr noundef nonnull align 8 dereferenceable(80) %1, ptr noundef %call11, ptr noundef %call12)
  %31 = getelementptr inbounds %class.anon, ptr %this1, i32 0, i32 3
  %32 = load ptr, ptr %31, align 8
  %33 = load ptr, ptr %32, align 8
  %34 = load i32, ptr %lo.addr, align 4
  %35 = load i32, ptr %hi.addr, align 4
  %call14 = call noundef ptr @_ZN3euf9bv_plugin10mk_extractEPNS_5enodeEjj(ptr noundef nonnull align 8 dereferenceable(80) %1, ptr noundef %33, i32 noundef %34, i32 noundef %35)
  call void @_ZN3euf6plugin10push_mergeEPNS_5enodeES2_(ptr noundef nonnull align 8 dereferenceable(16) %1, ptr noundef %call13, ptr noundef %call14)
  br label %return

return:                                           ; preds = %for.end, %if.then
  ret void
}