; Function Attrs: mustprogress uwtable
define internal fastcc void @"_ZZN3euf9bv_plugin17propagate_extractEPNS_5enodeEENK3$_2clEjjj"(ptr nocapture noundef nonnull readonly align 8 dereferenceable(32) %this, i32 noundef %lo, i32 noundef %mid, i32 noundef %hi) unnamed_addr #3 align 2 {
entry:
  %args.i.i = alloca [2 x ptr], align 16
  %args.i = alloca [2 x ptr], align 16
  %body.i = alloca ptr, align 8
  %lo_ = alloca i32, align 4
  %hi_ = alloca i32, align 4
  %0 = getelementptr inbounds i8, ptr %this, i64 8
  %1 = load ptr, ptr %0, align 8
  %2 = load ptr, ptr %this, align 8
  %3 = load ptr, ptr %2, align 8
  %m_parents.i = getelementptr inbounds i8, ptr %3, i64 48
  %4 = load ptr, ptr %m_parents.i, align 8
  %cmp.i.i.i = icmp eq ptr %4, null
  br i1 %cmp.i.i.i, label %for.end, label %_ZNK3euf13enode_parents3endEv.exit

_ZNK3euf13enode_parents3endEv.exit:               ; preds = %entry
  %arrayidx.i.i.i = getelementptr inbounds i8, ptr %4, i64 -4
  %5 = load i32, ptr %arrayidx.i.i.i, align 4
  %6 = zext i32 %5 to i64
  %add.ptr.i.i = getelementptr inbounds ptr, ptr %4, i64 %6
  %cmp.not14 = icmp eq i32 %5, 0
  br i1 %cmp.not14, label %for.end, label %for.body.lr.ph

for.body.lr.ph:                                   ; preds = %_ZNK3euf13enode_parents3endEv.exit
  %bv.i = getelementptr inbounds i8, ptr %1, i64 16
  %7 = getelementptr inbounds i8, ptr %this, i64 16
  br label %for.body

for.body:                                         ; preds = %for.body.lr.ph, %for.inc
  %__begin2.015 = phi ptr [ %4, %for.body.lr.ph ], [ %incdec.ptr, %for.inc ]
  %8 = load ptr, ptr %__begin2.015, align 8
  call void @llvm.lifetime.start.p0(i64 8, ptr nonnull %body.i)
  %9 = load ptr, ptr %8, align 8
  %call2.i = call noundef zeroext i1 @_ZNK14bv_recognizers10is_extractEPK4exprRjS3_RPS0_(ptr noundef nonnull align 4 dereferenceable(4) %bv.i, ptr noundef %9, ptr noundef nonnull align 4 dereferenceable(4) %lo_, ptr noundef nonnull align 4 dereferenceable(4) %hi_, ptr noundef nonnull align 8 dereferenceable(8) %body.i)
  call void @llvm.lifetime.end.p0(i64 8, ptr nonnull %body.i)
  %10 = load i32, ptr %lo_, align 4
  %cmp4 = icmp eq i32 %10, %lo
  %or.cond = select i1 %call2.i, i1 %cmp4, i1 false
  %11 = load i32, ptr %hi_, align 4
  %cmp6 = icmp eq i32 %11, %hi
  %or.cond10 = select i1 %or.cond, i1 %cmp6, i1 false
  br i1 %or.cond10, label %land.lhs.true7, label %for.inc

land.lhs.true7:                                   ; preds = %for.body
  %m_args.i = getelementptr inbounds i8, ptr %8, i64 176
  %12 = load ptr, ptr %m_args.i, align 8
  %m_root.i = getelementptr inbounds i8, ptr %12, i64 64
  %13 = load ptr, ptr %m_root.i, align 8
  %14 = load ptr, ptr %7, align 8
  %15 = load ptr, ptr %14, align 8
  %cmp10 = icmp eq ptr %13, %15
  br i1 %cmp10, label %return, label %for.inc

for.inc:                                          ; preds = %for.body, %land.lhs.true7
  %incdec.ptr = getelementptr inbounds i8, ptr %__begin2.015, i64 8
  %cmp.not = icmp eq ptr %incdec.ptr, %add.ptr.i.i
  br i1 %cmp.not, label %for.end, label %for.body

for.end:                                          ; preds = %for.inc, %entry, %_ZNK3euf13enode_parents3endEv.exit
  %16 = getelementptr inbounds i8, ptr %this, i64 24
  %17 = load ptr, ptr %16, align 8
  %18 = load ptr, ptr %17, align 8
  %call11 = call noundef ptr @_ZN3euf9bv_plugin10mk_extractEPNS_5enodeEjj(ptr noundef nonnull align 8 dereferenceable(80) %1, ptr noundef %18, i32 noundef %lo, i32 noundef %mid)
  %19 = load ptr, ptr %16, align 8
  %20 = load ptr, ptr %19, align 8
  %add = add i32 %mid, 1
  %call12 = call noundef ptr @_ZN3euf9bv_plugin10mk_extractEPNS_5enodeEjj(ptr noundef nonnull align 8 dereferenceable(80) %1, ptr noundef %20, i32 noundef %add, i32 noundef %hi)
  call void @llvm.lifetime.start.p0(i64 16, ptr nonnull %args.i)
  store ptr %call11, ptr %args.i, align 16
  %arrayinit.element.i = getelementptr inbounds i8, ptr %args.i, i64 8
  store ptr %call12, ptr %arrayinit.element.i, align 8
  %bv.i12 = getelementptr inbounds i8, ptr %1, i64 16
  %21 = load ptr, ptr %call11, align 8
  %22 = load ptr, ptr %call12, align 8
  call void @llvm.lifetime.start.p0(i64 16, ptr nonnull %args.i.i)
  store ptr %21, ptr %args.i.i, align 16
  %arrayinit.element.i.i = getelementptr inbounds i8, ptr %args.i.i, i64 8
  store ptr %22, ptr %arrayinit.element.i.i, align 8
  %m_manager.i.i.i = getelementptr inbounds i8, ptr %1, i64 24
  %23 = load ptr, ptr %m_manager.i.i.i, align 8
  %24 = load i32, ptr %bv.i12, align 4
  %call2.i.i.i = call noundef ptr @_ZN11ast_manager6mk_appEiijPKP4expr(ptr noundef nonnull align 8 dereferenceable(976) %23, i32 noundef %24, i32 noundef 37, i32 noundef 2, ptr noundef nonnull %args.i.i)
  call void @llvm.lifetime.end.p0(i64 16, ptr nonnull %args.i.i)
  %call4.i = call noundef ptr @_ZN3euf6plugin2mkEP4exprjPKPNS_5enodeE(ptr noundef nonnull align 8 dereferenceable(16) %1, ptr noundef %call2.i.i.i, i32 noundef 2, ptr noundef nonnull %args.i)
  call void @llvm.lifetime.end.p0(i64 16, ptr nonnull %args.i)
  %25 = load ptr, ptr %16, align 8
  %26 = load ptr, ptr %25, align 8
  %call14 = call noundef ptr @_ZN3euf9bv_plugin10mk_extractEPNS_5enodeEjj(ptr noundef nonnull align 8 dereferenceable(80) %1, ptr noundef %26, i32 noundef %lo, i32 noundef %hi)
  call void @_ZN3euf6plugin10push_mergeEPNS_5enodeES2_(ptr noundef nonnull align 8 dereferenceable(16) %1, ptr noundef %call4.i, ptr noundef %call14)
  br label %return

return:                                           ; preds = %land.lhs.true7, %for.end
  ret void
}